target datalayout = "e-m:e-p270:32:32-p271:32:32-p272:64:64-i64:64-i128:128-f80:128-n8:16:32:64-S128"
target triple = "x86_64-pc-linux-gnu"

%struct.H5O_loc_t = type { ptr, i64, i8 }
%struct.H5O_shared_t = type { i32, ptr, i32, %union.anon }
%union.anon = type { %struct.H5O_mesg_loc_t }
%struct.H5O_mesg_loc_t = type { i32, i64 }
%struct.H5O_copy_search_comm_dt_ud_t = type { ptr, ptr, %struct.H5O_loc_t }
%struct.H5O_copy_search_comm_dt_key_t = type { ptr, i64 }

@H5_H5O_copy_search_comm_dt_key_t_reg_free_list = global { i8, [3 x i8], i32, i32, [4 x i8], ptr, i64, ptr } { i8 0, [3 x i8] zeroinitializer, i32 0, i32 0, [4 x i8] zeroinitializer, ptr @.str.1, i64 16, ptr null }, align 8
@H5_haddr_t_reg_free_list = global { i8, [3 x i8], i32, i32, [4 x i8], ptr, i64, ptr } { i8 0, [3 x i8] zeroinitializer, i32 0, i32 0, [4 x i8] zeroinitializer, ptr @.str.2, i64 8, ptr null }, align 8
@H5O_init_g = external global i8, align 1
@H5_libterm_g = external global i8, align 1
@.str.3 = private unnamed_addr constant [101 x i8] c"generated/home/dtcxzyw/WorkSpace/Projects/compilers/llvm-opt-benchmark/bench/hdf5/hdf5/src/H5Ocopy.c\00", align 1
@H5E_OHDR_g = external global i64, align 8
@H5E_CANTGET_g = external global i64, align 8
@H5E_CANTINIT_g = external global i64, align 8
@H5E_RESOURCE_g = external global i64, align 8
@H5E_NOSPACE_g = external global i64, align 8
@.str.17 = private unnamed_addr constant [25 x i8] c"memory allocation failed\00", align 1
@H5E_CANTINSERT_g = external global i64, align 8
@.str.18 = private unnamed_addr constant [35 x i8] c"can't insert object into skip list\00", align 1
@__func__.H5O__copy_search_comm_dt_attr_cb = private unnamed_addr constant [33 x i8] c"H5O__copy_search_comm_dt_attr_cb\00", align 1
@.str.48 = private unnamed_addr constant [29 x i8] c"can't get attribute datatype\00", align 1
@.str.49 = private unnamed_addr constant [32 x i8] c"unable to copy datatype message\00", align 1

; Function Attrs: nounwind uwtable
define internal i32 @H5O__copy_search_comm_dt_attr_cb(ptr noundef %0, ptr noundef %1) #0 {
  %3 = alloca ptr, align 8
  %4 = alloca ptr, align 8
  %5 = alloca ptr, align 8
  %6 = alloca ptr, align 8
  %7 = alloca ptr, align 8
  %8 = alloca ptr, align 8
  %9 = alloca i8, align 1
  %10 = alloca i32, align 4
  %11 = alloca i8, align 1
  store ptr %0, ptr %3, align 8, !tbaa !164
  store ptr %1, ptr %4, align 8, !tbaa !30
  call void @llvm.lifetime.start.p0(i64 8, ptr %5) #8
  %12 = load ptr, ptr %4, align 8, !tbaa !30
  store ptr %12, ptr %5, align 8, !tbaa !158
  call void @llvm.lifetime.start.p0(i64 8, ptr %6) #8
  store ptr null, ptr %6, align 8, !tbaa !166
  call void @llvm.lifetime.start.p0(i64 8, ptr %7) #8
  store ptr null, ptr %7, align 8, !tbaa !136
  call void @llvm.lifetime.start.p0(i64 8, ptr %8) #8
  store ptr null, ptr %8, align 8, !tbaa !154
  call void @llvm.lifetime.start.p0(i64 1, ptr %9) #8
  store i8 0, ptr %9, align 1, !tbaa !12
  call void @llvm.lifetime.start.p0(i64 4, ptr %10) #8
  store i32 0, ptr %10, align 4, !tbaa !14
  call void @llvm.lifetime.start.p0(i64 1, ptr %11) #8
  store i8 0, ptr %11, align 1, !tbaa !12
  %13 = load i8, ptr @H5O_init_g, align 1, !tbaa !12, !range !16, !noundef !17
  %14 = trunc i8 %13 to i1
  br i1 %14, label %19, label %15

15:                                               ; preds = %2
  %16 = load i8, ptr @H5_libterm_g, align 1, !tbaa !12, !range !16, !noundef !17
  %17 = trunc i8 %16 to i1
  %18 = xor i1 %17, true
  br label %19

19:                                               ; preds = %15, %2
  %20 = phi i1 [ true, %2 ], [ %18, %15 ]
  %21 = xor i1 %20, true
  %22 = xor i1 %21, true
  %23 = zext i1 %22 to i32
  %24 = sext i32 %23 to i64
  %25 = call i64 @llvm.expect.i64(i64 %24, i64 1)
  %26 = icmp ne i64 %25, 0
  br i1 %26, label %27, label %203

27:                                               ; preds = %19
  %28 = load ptr, ptr %3, align 8, !tbaa !164
  %29 = call ptr @H5A_type(ptr noundef %28)
  store ptr %29, ptr %6, align 8, !tbaa !166
  %30 = icmp eq ptr null, %29
  br i1 %30, label %31, label %50

31:                                               ; preds = %27
  br label %32

32:                                               ; preds = %31
  br label %33

33:                                               ; preds = %32
  br label %34

34:                                               ; preds = %33
  %35 = load i64, ptr @H5E_OHDR_g, align 8, !tbaa !10
  %36 = load i64, ptr @H5E_CANTGET_g, align 8, !tbaa !10
  %37 = call i32 (ptr, ptr, i32, i64, i64, ptr, ...) @H5E_printf_stack(ptr noundef @.str.3, ptr noundef @__func__.H5O__copy_search_comm_dt_attr_cb, i32 noundef 1174, i64 noundef %35, i64 noundef %36, ptr noundef @.str.48)
  br label %38

38:                                               ; preds = %34
  br label %39

39:                                               ; preds = %38
  store i8 1, ptr %11, align 1, !tbaa !12
  %40 = load i8, ptr %11, align 1, !tbaa !12, !range !16, !noundef !17
  %41 = trunc i8 %40 to i1
  %42 = zext i1 %41 to i8
  store i8 %42, ptr %11, align 1, !tbaa !12
  br label %43

43:                                               ; preds = %39
  br label %44

44:                                               ; preds = %43
  br label %45

45:                                               ; preds = %44
  store i32 -1, ptr %10, align 4, !tbaa !14
  br label %174

46:                                               ; No predecessors!
  br label %47

47:                                               ; preds = %46
  br label %48

48:                                               ; preds = %47
  br label %49

49:                                               ; preds = %48
  br label %50

50:                                               ; preds = %49, %27
  %51 = load ptr, ptr %6, align 8, !tbaa !166
  %52 = call i32 @H5T_is_named(ptr noundef %51)
  %53 = icmp ne i32 %52, 0
  br i1 %53, label %54, label %173

54:                                               ; preds = %50
  %55 = call noalias ptr @H5FL_reg_malloc(ptr noundef @H5_H5O_copy_search_comm_dt_key_t_reg_free_list)
  store ptr %55, ptr %7, align 8, !tbaa !136
  %56 = icmp eq ptr null, %55
  br i1 %56, label %57, label %76

57:                                               ; preds = %54
  br label %58

58:                                               ; preds = %57
  br label %59

59:                                               ; preds = %58
  br label %60

60:                                               ; preds = %59
  %61 = load i64, ptr @H5E_RESOURCE_g, align 8, !tbaa !10
  %62 = load i64, ptr @H5E_NOSPACE_g, align 8, !tbaa !10
  %63 = call i32 (ptr, ptr, i32, i64, i64, ptr, ...) @H5E_printf_stack(ptr noundef @.str.3, ptr noundef @__func__.H5O__copy_search_comm_dt_attr_cb, i32 noundef 1180, i64 noundef %61, i64 noundef %62, ptr noundef @.str.17)
  br label %64

64:                                               ; preds = %60
  br label %65

65:                                               ; preds = %64
  store i8 1, ptr %11, align 1, !tbaa !12
  %66 = load i8, ptr %11, align 1, !tbaa !12, !range !16, !noundef !17
  %67 = trunc i8 %66 to i1
  %68 = zext i1 %67 to i8
  store i8 %68, ptr %11, align 1, !tbaa !12
  br label %69

69:                                               ; preds = %65
  br label %70

70:                                               ; preds = %69
  br label %71

71:                                               ; preds = %70
  store i32 -1, ptr %10, align 4, !tbaa !14
  br label %174

72:                                               ; No predecessors!
  br label %73

73:                                               ; preds = %72
  br label %74

74:                                               ; preds = %73
  br label %75

75:                                               ; preds = %74
  br label %76

76:                                               ; preds = %75, %54
  %77 = load ptr, ptr %6, align 8, !tbaa !166
  %78 = call ptr @H5O_msg_copy(i32 noundef 3, ptr noundef %77, ptr noundef null)
  %79 = load ptr, ptr %7, align 8, !tbaa !136
  %80 = getelementptr inbounds nuw %struct.H5O_copy_search_comm_dt_key_t, ptr %79, i32 0, i32 0
  store ptr %78, ptr %80, align 8, !tbaa !138
  %81 = icmp eq ptr null, %78
  br i1 %81, label %82, label %101

82:                                               ; preds = %76
  br label %83

83:                                               ; preds = %82
  br label %84

84:                                               ; preds = %83
  br label %85

85:                                               ; preds = %84
  %86 = load i64, ptr @H5E_OHDR_g, align 8, !tbaa !10
  %87 = load i64, ptr @H5E_CANTINIT_g, align 8, !tbaa !10
  %88 = call i32 (ptr, ptr, i32, i64, i64, ptr, ...) @H5E_printf_stack(ptr noundef @.str.3, ptr noundef @__func__.H5O__copy_search_comm_dt_attr_cb, i32 noundef 1184, i64 noundef %86, i64 noundef %87, ptr noundef @.str.49)
  br label %89

89:                                               ; preds = %85
  br label %90

90:                                               ; preds = %89
  store i8 1, ptr %11, align 1, !tbaa !12
  %91 = load i8, ptr %11, align 1, !tbaa !12, !range !16, !noundef !17
  %92 = trunc i8 %91 to i1
  %93 = zext i1 %92 to i8
  store i8 %93, ptr %11, align 1, !tbaa !12
  br label %94

94:                                               ; preds = %90
  br label %95

95:                                               ; preds = %94
  br label %96

96:                                               ; preds = %95
  store i32 -1, ptr %10, align 4, !tbaa !14
  br label %174

97:                                               ; No predecessors!
  br label %98

98:                                               ; preds = %97
  br label %99

99:                                               ; preds = %98
  br label %100

100:                                              ; preds = %99
  br label %101

101:                                              ; preds = %100, %76
  %102 = load ptr, ptr %5, align 8, !tbaa !158
  %103 = getelementptr inbounds nuw %struct.H5O_copy_search_comm_dt_ud_t, ptr %102, i32 0, i32 2
  %104 = getelementptr inbounds nuw %struct.H5O_loc_t, ptr %103, i32 0, i32 0
  %105 = load ptr, ptr %104, align 8, !tbaa !147
  %106 = load ptr, ptr %7, align 8, !tbaa !136
  %107 = getelementptr inbounds nuw %struct.H5O_copy_search_comm_dt_key_t, ptr %106, i32 0, i32 1
  %108 = call i32 @H5F_get_fileno(ptr noundef %105, ptr noundef %107)
  %109 = load ptr, ptr %5, align 8, !tbaa !158
  %110 = getelementptr inbounds nuw %struct.H5O_copy_search_comm_dt_ud_t, ptr %109, i32 0, i32 0
  %111 = load ptr, ptr %110, align 8, !tbaa !144
  %112 = load ptr, ptr %7, align 8, !tbaa !136
  %113 = call ptr @H5SL_search(ptr noundef %111, ptr noundef %112)
  %114 = icmp ne ptr %113, null
  br i1 %114, label %172, label %115

115:                                              ; preds = %101
  %116 = call noalias ptr @H5FL_reg_malloc(ptr noundef @H5_haddr_t_reg_free_list)
  store ptr %116, ptr %8, align 8, !tbaa !154
  %117 = icmp eq ptr null, %116
  br i1 %117, label %118, label %137

118:                                              ; preds = %115
  br label %119

119:                                              ; preds = %118
  br label %120

120:                                              ; preds = %119
  br label %121

121:                                              ; preds = %120
  %122 = load i64, ptr @H5E_RESOURCE_g, align 8, !tbaa !10
  %123 = load i64, ptr @H5E_NOSPACE_g, align 8, !tbaa !10
  %124 = call i32 (ptr, ptr, i32, i64, i64, ptr, ...) @H5E_printf_stack(ptr noundef @.str.3, ptr noundef @__func__.H5O__copy_search_comm_dt_attr_cb, i32 noundef 1192, i64 noundef %122, i64 noundef %123, ptr noundef @.str.17)
  br label %125

125:                                              ; preds = %121
  br label %126

126:                                              ; preds = %125
  store i8 1, ptr %11, align 1, !tbaa !12
  %127 = load i8, ptr %11, align 1, !tbaa !12, !range !16, !noundef !17
  %128 = trunc i8 %127 to i1
  %129 = zext i1 %128 to i8
  store i8 %129, ptr %11, align 1, !tbaa !12
  br label %130

130:                                              ; preds = %126
  br label %131

131:                                              ; preds = %130
  br label %132

132:                                              ; preds = %131
  store i32 -1, ptr %10, align 4, !tbaa !14
  br label %174

133:                                              ; No predecessors!
  br label %134

134:                                              ; preds = %133
  br label %135

135:                                              ; preds = %134
  br label %136

136:                                              ; preds = %135
  br label %137

137:                                              ; preds = %136, %115
  %138 = load ptr, ptr %7, align 8, !tbaa !136
  %139 = getelementptr inbounds nuw %struct.H5O_copy_search_comm_dt_key_t, ptr %138, i32 0, i32 0
  %140 = load ptr, ptr %139, align 8, !tbaa !138
  %141 = getelementptr inbounds nuw %struct.H5O_shared_t, ptr %140, i32 0, i32 3
  %142 = getelementptr inbounds nuw %struct.H5O_mesg_loc_t, ptr %141, i32 0, i32 1
  %143 = load i64, ptr %142, align 8, !tbaa !110
  %144 = load ptr, ptr %8, align 8, !tbaa !154
  store i64 %143, ptr %144, align 8, !tbaa !10
  %145 = load ptr, ptr %5, align 8, !tbaa !158
  %146 = getelementptr inbounds nuw %struct.H5O_copy_search_comm_dt_ud_t, ptr %145, i32 0, i32 0
  %147 = load ptr, ptr %146, align 8, !tbaa !144
  %148 = load ptr, ptr %8, align 8, !tbaa !154
  %149 = load ptr, ptr %7, align 8, !tbaa !136
  %150 = call i32 @H5SL_insert(ptr noundef %147, ptr noundef %148, ptr noundef %149)
  %151 = icmp slt i32 %150, 0
  br i1 %151, label %152, label %171

152:                                              ; preds = %137
  br label %153

153:                                              ; preds = %152
  br label %154

154:                                              ; preds = %153
  br label %155

155:                                              ; preds = %154
  %156 = load i64, ptr @H5E_OHDR_g, align 8, !tbaa !10
  %157 = load i64, ptr @H5E_CANTINSERT_g, align 8, !tbaa !10
  %158 = call i32 (ptr, ptr, i32, i64, i64, ptr, ...) @H5E_printf_stack(ptr noundef @.str.3, ptr noundef @__func__.H5O__copy_search_comm_dt_attr_cb, i32 noundef 1197, i64 noundef %156, i64 noundef %157, ptr noundef @.str.18)
  br label %159

159:                                              ; preds = %155
  br label %160

160:                                              ; preds = %159
  store i8 1, ptr %11, align 1, !tbaa !12
  %161 = load i8, ptr %11, align 1, !tbaa !12, !range !16, !noundef !17
  %162 = trunc i8 %161 to i1
  %163 = zext i1 %162 to i8
  store i8 %163, ptr %11, align 1, !tbaa !12
  br label %164

164:                                              ; preds = %160
  br label %165

165:                                              ; preds = %164
  br label %166

166:                                              ; preds = %165
  store i32 -1, ptr %10, align 4, !tbaa !14
  br label %174

167:                                              ; No predecessors!
  br label %168

168:                                              ; preds = %167
  br label %169

169:                                              ; preds = %168
  br label %170

170:                                              ; preds = %169
  br label %171

171:                                              ; preds = %170, %137
  store i8 1, ptr %9, align 1, !tbaa !12
  br label %172

172:                                              ; preds = %171, %101
  br label %173

173:                                              ; preds = %172, %50
  br label %174

174:                                              ; preds = %173, %166, %132, %96, %71, %45
  %175 = load i8, ptr %9, align 1, !tbaa !12, !range !16, !noundef !17
  %176 = trunc i8 %175 to i1
  br i1 %176, label %202, label %177

177:                                              ; preds = %174
  %178 = load ptr, ptr %7, align 8, !tbaa !136
  %179 = icmp ne ptr %178, null
  br i1 %179, label %180, label %195

180:                                              ; preds = %177
  %181 = load ptr, ptr %7, align 8, !tbaa !136
  %182 = getelementptr inbounds nuw %struct.H5O_copy_search_comm_dt_key_t, ptr %181, i32 0, i32 0
  %183 = load ptr, ptr %182, align 8, !tbaa !138
  %184 = icmp ne ptr %183, null
  br i1 %184, label %185, label %192

185:                                              ; preds = %180
  %186 = load ptr, ptr %7, align 8, !tbaa !136
  %187 = getelementptr inbounds nuw %struct.H5O_copy_search_comm_dt_key_t, ptr %186, i32 0, i32 0
  %188 = load ptr, ptr %187, align 8, !tbaa !138
  %189 = call ptr @H5O_msg_free(i32 noundef 3, ptr noundef %188)
  %190 = load ptr, ptr %7, align 8, !tbaa !136
  %191 = getelementptr inbounds nuw %struct.H5O_copy_search_comm_dt_key_t, ptr %190, i32 0, i32 0
  store ptr %189, ptr %191, align 8, !tbaa !138
  br label %192

192:                                              ; preds = %185, %180
  %193 = load ptr, ptr %7, align 8, !tbaa !136
  %194 = call ptr @H5FL_reg_free(ptr noundef @H5_H5O_copy_search_comm_dt_key_t_reg_free_list, ptr noundef %193)
  store ptr %194, ptr %7, align 8, !tbaa !136
  br label %195

195:                                              ; preds = %192, %177
  %196 = load ptr, ptr %8, align 8, !tbaa !154
  %197 = icmp ne ptr %196, null
  br i1 %197, label %198, label %201

198:                                              ; preds = %195
  %199 = load ptr, ptr %8, align 8, !tbaa !154
  %200 = call ptr @H5FL_reg_free(ptr noundef @H5_haddr_t_reg_free_list, ptr noundef %199)
  store ptr %200, ptr %8, align 8, !tbaa !154
  br label %201

201:                                              ; preds = %198, %195
  br label %202

202:                                              ; preds = %201, %174
  br label %203

203:                                              ; preds = %202, %19
  %204 = load i32, ptr %10, align 4, !tbaa !14
  call void @llvm.lifetime.end.p0(i64 1, ptr %11) #8
  call void @llvm.lifetime.end.p0(i64 4, ptr %10) #8
  call void @llvm.lifetime.end.p0(i64 1, ptr %9) #8
  call void @llvm.lifetime.end.p0(i64 8, ptr %8) #8
  call void @llvm.lifetime.end.p0(i64 8, ptr %7) #8
  call void @llvm.lifetime.end.p0(i64 8, ptr %6) #8
  call void @llvm.lifetime.end.p0(i64 8, ptr %5) #8
  ret i32 %204
}