; Function Attrs: nounwind uwtable
define internal range(i32 -1, 1) i32 @H5O__copy_search_comm_dt_attr_cb(ptr noundef %0, ptr noundef readonly captures(none) %1) #0 {
  %3 = load i8, ptr @H5O_init_g, align 1, !tbaa !3, !range !7, !noundef !8
  %4 = trunc nuw i8 %3 to i1
  %5 = load i8, ptr @H5_libterm_g, align 1, !range !7
  %6 = trunc nuw i8 %5 to i1
  %7 = xor i1 %6, true
  %8 = select i1 %4, i1 true, i1 %7
  br i1 %8, label %9, label %.thread59, !prof !9

9:                                                ; preds = %2
  %10 = tail call ptr @H5A_type(ptr noundef %0) #7
  %11 = icmp eq ptr %10, null
  br i1 %11, label %12, label %16

12:                                               ; preds = %9
  %13 = load i64, ptr @H5E_OHDR_g, align 8, !tbaa !10
  %14 = load i64, ptr @H5E_CANTGET_g, align 8, !tbaa !10
  %15 = tail call i32 (ptr, ptr, i32, i64, i64, ptr, ...) @H5E_printf_stack(ptr noundef nonnull @.str.3, ptr noundef nonnull @__func__.H5O__copy_search_comm_dt_attr_cb, i32 noundef 1174, i64 noundef %13, i64 noundef %14, ptr noundef nonnull @.str.48) #7
  br label %.thread59

16:                                               ; preds = %9
  %17 = tail call i32 @H5T_is_named(ptr noundef nonnull %10) #7
  %.not = icmp eq i32 %17, 0
  br i1 %.not, label %.thread59, label %18

18:                                               ; preds = %16
  %19 = tail call noalias ptr @H5FL_reg_malloc(ptr noundef nonnull @H5_H5O_copy_search_comm_dt_key_t_reg_free_list) #7
  %20 = icmp eq ptr %19, null
  br i1 %20, label %21, label %25

21:                                               ; preds = %18
  %22 = load i64, ptr @H5E_RESOURCE_g, align 8, !tbaa !10
  %23 = load i64, ptr @H5E_NOSPACE_g, align 8, !tbaa !10
  %24 = tail call i32 (ptr, ptr, i32, i64, i64, ptr, ...) @H5E_printf_stack(ptr noundef nonnull @.str.3, ptr noundef nonnull @__func__.H5O__copy_search_comm_dt_attr_cb, i32 noundef 1180, i64 noundef %22, i64 noundef %23, ptr noundef nonnull @.str.17) #7
  br label %.thread59

25:                                               ; preds = %18
  %26 = tail call ptr @H5O_msg_copy(i32 noundef 3, ptr noundef nonnull %10, ptr noundef null) #7
  store ptr %26, ptr %19, align 8, !tbaa !62
  %27 = icmp eq ptr %26, null
  br i1 %27, label %28, label %32

28:                                               ; preds = %25
  %29 = load i64, ptr @H5E_OHDR_g, align 8, !tbaa !10
  %30 = load i64, ptr @H5E_CANTINIT_g, align 8, !tbaa !10
  %31 = tail call i32 (ptr, ptr, i32, i64, i64, ptr, ...) @H5E_printf_stack(ptr noundef nonnull @.str.3, ptr noundef nonnull @__func__.H5O__copy_search_comm_dt_attr_cb, i32 noundef 1184, i64 noundef %29, i64 noundef %30, ptr noundef nonnull @.str.49) #7
  br label %57

32:                                               ; preds = %25
  %33 = getelementptr inbounds nuw i8, ptr %1, i64 16
  %34 = load ptr, ptr %33, align 8, !tbaa !69
  %35 = getelementptr inbounds nuw i8, ptr %19, i64 8
  %36 = tail call i32 @H5F_get_fileno(ptr noundef %34, ptr noundef nonnull %35) #7
  %37 = load ptr, ptr %1, align 8, !tbaa !65
  %38 = tail call ptr @H5SL_search(ptr noundef %37, ptr noundef nonnull %19) #7
  %.not36 = icmp eq ptr %38, null
  br i1 %.not36, label %39, label %57

39:                                               ; preds = %32
  %40 = tail call noalias ptr @H5FL_reg_malloc(ptr noundef nonnull @H5_haddr_t_reg_free_list) #7
  %41 = icmp eq ptr %40, null
  br i1 %41, label %42, label %46

42:                                               ; preds = %39
  %43 = load i64, ptr @H5E_RESOURCE_g, align 8, !tbaa !10
  %44 = load i64, ptr @H5E_NOSPACE_g, align 8, !tbaa !10
  %45 = tail call i32 (ptr, ptr, i32, i64, i64, ptr, ...) @H5E_printf_stack(ptr noundef nonnull @.str.3, ptr noundef nonnull @__func__.H5O__copy_search_comm_dt_attr_cb, i32 noundef 1192, i64 noundef %43, i64 noundef %44, ptr noundef nonnull @.str.17) #7
  br label %57

46:                                               ; preds = %39
  %47 = load ptr, ptr %19, align 8, !tbaa !62
  %48 = getelementptr inbounds nuw i8, ptr %47, i64 32
  %49 = load i64, ptr %48, align 8, !tbaa !126
  store i64 %49, ptr %40, align 8, !tbaa !10
  %50 = load ptr, ptr %1, align 8, !tbaa !65
  %51 = tail call i32 @H5SL_insert(ptr noundef %50, ptr noundef nonnull %40, ptr noundef nonnull %19) #7
  %52 = icmp slt i32 %51, 0
  br i1 %52, label %53, label %.thread59

53:                                               ; preds = %46
  %54 = load i64, ptr @H5E_OHDR_g, align 8, !tbaa !10
  %55 = load i64, ptr @H5E_CANTINSERT_g, align 8, !tbaa !10
  %56 = tail call i32 (ptr, ptr, i32, i64, i64, ptr, ...) @H5E_printf_stack(ptr noundef nonnull @.str.3, ptr noundef nonnull @__func__.H5O__copy_search_comm_dt_attr_cb, i32 noundef 1197, i64 noundef %54, i64 noundef %55, ptr noundef nonnull @.str.18) #7
  br label %57

57:                                               ; preds = %53, %42, %32, %28
  %.028.ph.ph = phi ptr [ null, %28 ], [ null, %32 ], [ null, %42 ], [ %40, %53 ]
  %.1.ph.ph = phi i32 [ -1, %28 ], [ 0, %32 ], [ -1, %42 ], [ -1, %53 ]
  %58 = load ptr, ptr %19, align 8, !tbaa !62
  %.not38 = icmp eq ptr %58, null
  br i1 %.not38, label %61, label %59

59:                                               ; preds = %57
  %60 = tail call ptr @H5O_msg_free(i32 noundef 3, ptr noundef nonnull %58) #7
  store ptr %60, ptr %19, align 8, !tbaa !62
  br label %61

61:                                               ; preds = %57, %59
  %62 = tail call ptr @H5FL_reg_free(ptr noundef nonnull @H5_H5O_copy_search_comm_dt_key_t_reg_free_list, ptr noundef nonnull %19) #7
  %.not39 = icmp eq ptr %.028.ph.ph, null
  br i1 %.not39, label %.thread59, label %63

63:                                               ; preds = %61
  %64 = tail call ptr @H5FL_reg_free(ptr noundef nonnull @H5_haddr_t_reg_free_list, ptr noundef nonnull %.028.ph.ph) #7
  br label %.thread59

.thread59:                                        ; preds = %12, %21, %16, %46, %63, %61, %2
  %.0 = phi i32 [ %.1.ph.ph, %63 ], [ %.1.ph.ph, %61 ], [ 0, %2 ], [ 0, %46 ], [ -1, %12 ], [ -1, %21 ], [ 0, %16 ]
  ret i32 %.0
}